; Function Attrs: mustprogress nofree norecurse nosync nounwind willreturn memory(argmem: readwrite) uwtable
define internal noundef zeroext i1 @"_ZNSt17_Function_handlerIFbRKN5Eigen6MatrixIdLin1ELin1ELi0ELin1ELin1EEERKNS1_IiLin1ELin1ELi0ELin1ELin1EEES7_RKNS1_IiLin1ELi1ELi0ELin1ELi1EEES7_S7_RKSt14priority_queueISt5tupleIJdiiEESt6vectorISD_SaISD_EESt7greaterISD_EESA_S4_iiiiiEZN3igl28max_faces_stopping_conditionERiiiRSt8functionISM_EE3$_0E10_M_managerERSt9_Any_dataRKSU_St18_Manager_operation"(ptr noundef nonnull writeonly align 8 captures(none) dereferenceable(16) %0, ptr noundef nonnull align 8 dereferenceable(16) %1, i32 noundef %2) #6 align 2 personality ptr @__gxx_personality_v0 {
  switch i32 %2, label %"_ZNSt14_Function_base13_Base_managerIZN3igl28max_faces_stopping_conditionERiiiRSt8functionIFbRKN5Eigen6MatrixIdLin1ELin1ELi0ELin1ELin1EEERKNS5_IiLin1ELin1ELi0ELin1ELin1EEESB_RKNS5_IiLin1ELi1ELi0ELin1ELi1EEESB_SB_RKSt14priority_queueISt5tupleIJdiiEESt6vectorISH_SaISH_EESt7greaterISH_EESE_S8_iiiiiEEE3$_0E10_M_managerERSt9_Any_dataRKSV_St18_Manager_operation.exit" [
    i32 0, label %4
    i32 1, label %5
    i32 2, label %6
  ]

4:                                                ; preds = %3
  store ptr @"_ZTIZN3igl28max_faces_stopping_conditionERiiiRSt8functionIFbRKN5Eigen6MatrixIdLin1ELin1ELi0ELin1ELin1EEERKNS3_IiLin1ELin1ELi0ELin1ELin1EEES9_RKNS3_IiLin1ELi1ELi0ELin1ELi1EEES9_S9_RKSt14priority_queueISt5tupleIJdiiEESt6vectorISF_SaISF_EESt7greaterISF_EESC_S6_iiiiiEEE3$_0", ptr %0, align 8, !tbaa !17
  br label %"_ZNSt14_Function_base13_Base_managerIZN3igl28max_faces_stopping_conditionERiiiRSt8functionIFbRKN5Eigen6MatrixIdLin1ELin1ELi0ELin1ELin1EEERKNS5_IiLin1ELin1ELi0ELin1ELin1EEESB_RKNS5_IiLin1ELi1ELi0ELin1ELi1EEESB_SB_RKSt14priority_queueISt5tupleIJdiiEESt6vectorISH_SaISH_EESt7greaterISH_EESE_S8_iiiiiEEE3$_0E10_M_managerERSt9_Any_dataRKSV_St18_Manager_operation.exit"

5:                                                ; preds = %3
  store ptr %1, ptr %0, align 8, !tbaa !8
  br label %"_ZNSt14_Function_base13_Base_managerIZN3igl28max_faces_stopping_conditionERiiiRSt8functionIFbRKN5Eigen6MatrixIdLin1ELin1ELi0ELin1ELin1EEERKNS5_IiLin1ELin1ELi0ELin1ELin1EEESB_RKNS5_IiLin1ELi1ELi0ELin1ELi1EEESB_SB_RKSt14priority_queueISt5tupleIJdiiEESt6vectorISH_SaISH_EESt7greaterISH_EESE_S8_iiiiiEEE3$_0E10_M_managerERSt9_Any_dataRKSV_St18_Manager_operation.exit"

6:                                                ; preds = %3
  tail call void @llvm.memcpy.p0.p0.i64(ptr noundef nonnull align 8 dereferenceable(16) %0, ptr noundef nonnull readonly align 8 dereferenceable(16) %1, i64 16, i1 false), !tbaa.struct !19
  br label %"_ZNSt14_Function_base13_Base_managerIZN3igl28max_faces_stopping_conditionERiiiRSt8functionIFbRKN5Eigen6MatrixIdLin1ELin1ELi0ELin1ELin1EEERKNS5_IiLin1ELin1ELi0ELin1ELin1EEESB_RKNS5_IiLin1ELi1ELi0ELin1ELi1EEESB_SB_RKSt14priority_queueISt5tupleIJdiiEESt6vectorISH_SaISH_EESt7greaterISH_EESE_S8_iiiiiEEE3$_0E10_M_managerERSt9_Any_dataRKSV_St18_Manager_operation.exit"

"_ZNSt14_Function_base13_Base_managerIZN3igl28max_faces_stopping_conditionERiiiRSt8functionIFbRKN5Eigen6MatrixIdLin1ELin1ELi0ELin1ELin1EEERKNS5_IiLin1ELin1ELi0ELin1ELin1EEESB_RKNS5_IiLin1ELi1ELi0ELin1ELi1EEESB_SB_RKSt14priority_queueISt5tupleIJdiiEESt6vectorISH_SaISH_EESt7greaterISH_EESE_S8_iiiiiEEE3$_0E10_M_managerERSt9_Any_dataRKSV_St18_Manager_operation.exit": ; preds = %3, %6, %5, %4
  ret i1 false
}